; Function Attrs: mustprogress uwtable
define void @_ZN3net20QuicUnackedPacketMap32MaybeRemoveRetransmittableFramesEPNS_16TransmissionInfoE(ptr noundef nonnull align 8 captures(none) dereferenceable(120) %0, ptr noundef %1) local_unnamed_addr #0 align 2 personality ptr @__gxx_personality_v0 {
  %3 = getelementptr inbounds nuw i8, ptr %1, i64 43
  %4 = load i8, ptr %3, align 1, !tbaa !93, !range !94, !noundef !95
  %5 = trunc nuw i8 %4 to i1
  br i1 %5, label %6, label %10

6:                                                ; preds = %2
  %7 = getelementptr inbounds nuw i8, ptr %0, i64 112
  %8 = load i64, ptr %7, align 8, !tbaa !78
  %9 = add i64 %8, -1
  store i64 %9, ptr %7, align 8, !tbaa !78
  store i8 0, ptr %3, align 1, !tbaa !93
  br label %10

10:                                               ; preds = %6, %2
  tail call void @_ZN3net9QuicUtils12DeleteFramesEPSt6vectorINS_9QuicFrameESaIS2_EE(ptr noundef nonnull %1)
  ret void
}